target datalayout = "e-m:e-p270:32:32-p271:32:32-p272:64:64-i64:64-i128:128-f80:128-n8:16:32:64-S128"
target triple = "x86_64-pc-linux-gnu"

%struct.H5F_t = type { ptr, ptr, ptr, ptr, i32, ptr, i8, i8, ptr, i32 }

@.str = private unnamed_addr constant [98 x i8] c"generated/home/dtcxzyw/WorkSpace/Projects/compilers/llvm-opt-benchmark/bench/hdf5/hdf5/src/H5FO.c\00", align 1
@H5E_FILE_g = external global i64, align 8
@H5E_CANTINIT_g = external global i64, align 8
@.str.1 = private unnamed_addr constant [39 x i8] c"unable to create open object container\00", align 1
@__func__.H5FO_top_create = private unnamed_addr constant [16 x i8] c"H5FO_top_create\00", align 1

; Function Attrs: nounwind uwtable
define i32 @H5FO_top_create(ptr noundef %0) #0 {
  %2 = alloca ptr, align 8
  %3 = alloca i32, align 4
  %4 = alloca i8, align 1
  store ptr %0, ptr %2, align 8, !tbaa !3
  call void @llvm.lifetime.start.p0(i64 4, ptr %3) #3
  store i32 0, ptr %3, align 4, !tbaa !8
  call void @llvm.lifetime.start.p0(i64 1, ptr %4) #3
  store i8 0, ptr %4, align 1, !tbaa !10
  %5 = call ptr @H5SL_create(i32 noundef 1, ptr noundef null)
  %6 = load ptr, ptr %2, align 8, !tbaa !3
  %7 = getelementptr inbounds nuw %struct.H5F_t, ptr %6, i32 0, i32 5
  store ptr %5, ptr %7, align 8, !tbaa !49
  %8 = icmp eq ptr %5, null
  br i1 %8, label %9, label %28

9:                                                ; preds = %1
  br label %10

10:                                               ; preds = %9
  br label %11

11:                                               ; preds = %10
  br label %12

12:                                               ; preds = %11
  %13 = load i64, ptr @H5E_FILE_g, align 8, !tbaa !39
  %14 = load i64, ptr @H5E_CANTINIT_g, align 8, !tbaa !39
  %15 = call i32 (ptr, ptr, i32, i64, i64, ptr, ...) @H5E_printf_stack(ptr noundef @.str, ptr noundef @__func__.H5FO_top_create, i32 noundef 395, i64 noundef %13, i64 noundef %14, ptr noundef @.str.1)
  br label %16

16:                                               ; preds = %12
  br label %17

17:                                               ; preds = %16
  store i8 1, ptr %4, align 1, !tbaa !10
  %18 = load i8, ptr %4, align 1, !tbaa !10, !range !40, !noundef !41
  %19 = trunc i8 %18 to i1
  %20 = zext i1 %19 to i8
  store i8 %20, ptr %4, align 1, !tbaa !10
  br label %21

21:                                               ; preds = %17
  br label %22

22:                                               ; preds = %21
  br label %23

23:                                               ; preds = %22
  store i32 -1, ptr %3, align 4, !tbaa !8
  br label %29

24:                                               ; No predecessors!
  br label %25

25:                                               ; preds = %24
  br label %26

26:                                               ; preds = %25
  br label %27

27:                                               ; preds = %26
  br label %28

28:                                               ; preds = %27, %1
  br label %29

29:                                               ; preds = %28, %23
  %30 = load i32, ptr %3, align 4, !tbaa !8
  call void @llvm.lifetime.end.p0(i64 1, ptr %4) #3
  call void @llvm.lifetime.end.p0(i64 4, ptr %3) #3
  ret i32 %30
}