; Function Attrs: nounwind uwtable
define range(i32 -1, 1) i32 @H5FO_top_create(ptr noundef writeonly captures(none) initializes((40, 48)) %0) local_unnamed_addr #0 {
  %2 = tail call ptr @H5SL_create(i32 noundef 1, ptr noundef null) #2
  %3 = getelementptr inbounds nuw i8, ptr %0, i64 40
  store ptr %2, ptr %3, align 8, !tbaa !43
  %4 = icmp eq ptr %2, null
  br i1 %4, label %5, label %9

5:                                                ; preds = %1
  %6 = load i64, ptr @H5E_FILE_g, align 8, !tbaa !36
  %7 = load i64, ptr @H5E_CANTINIT_g, align 8, !tbaa !36
  %8 = tail call i32 (ptr, ptr, i32, i64, i64, ptr, ...) @H5E_printf_stack(ptr noundef nonnull @.str, ptr noundef nonnull @__func__.H5FO_top_create, i32 noundef 395, i64 noundef %6, i64 noundef %7, ptr noundef nonnull @.str.1) #2
  br label %9

9:                                                ; preds = %1, %5
  %.0 = phi i32 [ -1, %5 ], [ 0, %1 ]
  ret i32 %.0
}